target datalayout = "e-m:e-p270:32:32-p271:32:32-p272:64:64-i64:64-i128:128-f80:128-n8:16:32:64-S128"
target triple = "x86_64-pc-linux-gnu"

%struct.BTMetaPageData = type { i32, i32, i32, i32, i32, i32, i32, double, i8 }
%struct.RelationData = type { %struct.RelFileLocator, ptr, i32, i32, i8, i8, i8, i8, i8, i32, i32, i32, i32, ptr, ptr, i32, %struct.LockInfoData, ptr, ptr, ptr, ptr, ptr, i8, ptr, ptr, ptr, ptr, ptr, ptr, i32, ptr, i8, ptr, ptr, i32, i8, i32, ptr, i8, ptr, ptr, ptr, ptr, ptr, ptr, ptr, i32, ptr, ptr, ptr, ptr, ptr, ptr, ptr, ptr, ptr, ptr, ptr, ptr, ptr, ptr, ptr, ptr, ptr, ptr, ptr, i32, i8, ptr }
%struct.RelFileLocator = type { i32, i32, i32 }
%struct.LockInfoData = type { %struct.LockRelId }
%struct.LockRelId = type { i32, i32 }
%struct.FormData_pg_class = type { i32, %struct.nameData, i32, i32, i32, i32, i32, i32, i32, i32, float, i32, i32, i8, i8, i8, i8, i16, i16, i8, i8, i8, i8, i8, i8, i8, i8, i32, i32, i32 }
%struct.nameData = type { [64 x i8] }

; Function Attrs: nounwind uwtable
define dso_local void @_bt_unlockbuf(ptr noundef %0, i32 noundef %1) #0 {
  %3 = alloca ptr, align 8
  %4 = alloca i32, align 4
  store ptr %0, ptr %3, align 8
  store i32 %1, ptr %4, align 4
  br label %5

5:                                                ; preds = %2
  br label %6

6:                                                ; preds = %5
  %7 = load i32, ptr %4, align 4
  call void @LockBuffer(i32 noundef %7, i32 noundef 0)
  %8 = load ptr, ptr %3, align 8
  %9 = getelementptr inbounds nuw %struct.RelationData, ptr %8, i32 0, i32 13
  %10 = load ptr, ptr %9, align 8
  %11 = getelementptr inbounds nuw %struct.FormData_pg_class, ptr %10, i32 0, i32 15
  %12 = load i8, ptr %11, align 2
  %13 = sext i8 %12 to i32
  %14 = icmp eq i32 %13, 116
  br i1 %14, label %18, label %15

15:                                               ; preds = %6
  br label %16

16:                                               ; preds = %15
  br label %17

17:                                               ; preds = %16
  br label %18

18:                                               ; preds = %17, %6
  ret void
}

; Function Attrs: nounwind uwtable
define dso_local void @_bt_lockbuf(ptr noundef %0, i32 noundef %1, i32 noundef %2) #0 {
  %4 = alloca ptr, align 8
  %5 = alloca i32, align 4
  %6 = alloca i32, align 4
  store ptr %0, ptr %4, align 8
  store i32 %1, ptr %5, align 4
  store i32 %2, ptr %6, align 4
  %7 = load i32, ptr %5, align 4
  %8 = load i32, ptr %6, align 4
  call void @LockBuffer(i32 noundef %7, i32 noundef %8)
  %9 = load ptr, ptr %4, align 8
  %10 = getelementptr inbounds nuw %struct.RelationData, ptr %9, i32 0, i32 13
  %11 = load ptr, ptr %10, align 8
  %12 = getelementptr inbounds nuw %struct.FormData_pg_class, ptr %11, i32 0, i32 15
  %13 = load i8, ptr %12, align 2
  %14 = sext i8 %13 to i32
  %15 = icmp eq i32 %14, 116
  br i1 %15, label %19, label %16

16:                                               ; preds = %3
  br label %17

17:                                               ; preds = %16
  br label %18

18:                                               ; preds = %17
  br label %19

19:                                               ; preds = %18, %3
  ret void
}

; Function Attrs: nounwind uwtable
define dso_local void @_bt_relbuf(ptr noundef %0, i32 noundef %1) #0 {
  %3 = alloca ptr, align 8
  %4 = alloca i32, align 4
  store ptr %0, ptr %3, align 8
  store i32 %1, ptr %4, align 4
  %5 = load ptr, ptr %3, align 8
  %6 = load i32, ptr %4, align 4
  call void @_bt_unlockbuf(ptr noundef %5, i32 noundef %6)
  %7 = load i32, ptr %4, align 4
  call void @ReleaseBuffer(i32 noundef %7)
  ret void
}

; Function Attrs: nounwind uwtable
define dso_local i32 @_bt_getbuf(ptr noundef %0, i32 noundef %1, i32 noundef %2) #0 {
  %4 = alloca ptr, align 8
  %5 = alloca i32, align 4
  %6 = alloca i32, align 4
  %7 = alloca i32, align 4
  store ptr %0, ptr %4, align 8
  store i32 %1, ptr %5, align 4
  store i32 %2, ptr %6, align 4
  call void @llvm.lifetime.start.p0(i64 4, ptr %7) #8
  %8 = load ptr, ptr %4, align 8
  %9 = load i32, ptr %5, align 4
  %10 = call i32 @ReadBuffer(ptr noundef %8, i32 noundef %9)
  store i32 %10, ptr %7, align 4
  %11 = load ptr, ptr %4, align 8
  %12 = load i32, ptr %7, align 4
  %13 = load i32, ptr %6, align 4
  call void @_bt_lockbuf(ptr noundef %11, i32 noundef %12, i32 noundef %13)
  %14 = load ptr, ptr %4, align 8
  %15 = load i32, ptr %7, align 4
  call void @_bt_checkpage(ptr noundef %14, i32 noundef %15)
  %16 = load i32, ptr %7, align 4
  call void @llvm.lifetime.end.p0(i64 4, ptr %7) #8
  ret i32 %16
}

; Function Attrs: nounwind uwtable
define dso_local void @_bt_metaversion(ptr noundef %0, ptr noundef %1, ptr noundef %2) #0 {
  %4 = alloca ptr, align 8
  %5 = alloca ptr, align 8
  %6 = alloca ptr, align 8
  %7 = alloca ptr, align 8
  %8 = alloca i32, align 4
  %9 = alloca i32, align 4
  store ptr %0, ptr %4, align 8
  store ptr %1, ptr %5, align 8
  store ptr %2, ptr %6, align 8
  call void @llvm.lifetime.start.p0(i64 8, ptr %7) #8
  %10 = load ptr, ptr %4, align 8
  %11 = getelementptr inbounds nuw %struct.RelationData, ptr %10, i32 0, i32 64
  %12 = load ptr, ptr %11, align 8
  %13 = icmp eq ptr %12, null
  br i1 %13, label %14, label %55

14:                                               ; preds = %3
  call void @llvm.lifetime.start.p0(i64 4, ptr %8) #8
  %15 = load ptr, ptr %4, align 8
  %16 = call i32 @_bt_getbuf(ptr noundef %15, i32 noundef 0, i32 noundef 1)
  store i32 %16, ptr %8, align 4
  %17 = load ptr, ptr %4, align 8
  %18 = load i32, ptr %8, align 4
  %19 = call ptr @_bt_getmeta(ptr noundef %17, i32 noundef %18)
  store ptr %19, ptr %7, align 8
  %20 = load ptr, ptr %7, align 8
  %21 = getelementptr inbounds nuw %struct.BTMetaPageData, ptr %20, i32 0, i32 2
  %22 = load i32, ptr %21, align 8
  %23 = icmp eq i32 %22, 0
  br i1 %23, label %24, label %39

24:                                               ; preds = %14
  %25 = load ptr, ptr %7, align 8
  %26 = getelementptr inbounds nuw %struct.BTMetaPageData, ptr %25, i32 0, i32 1
  %27 = load i32, ptr %26, align 4
  %28 = icmp ugt i32 %27, 3
  %29 = load ptr, ptr %5, align 8
  %30 = zext i1 %28 to i8
  store i8 %30, ptr %29, align 1
  %31 = load ptr, ptr %7, align 8
  %32 = getelementptr inbounds nuw %struct.BTMetaPageData, ptr %31, i32 0, i32 8
  %33 = load i8, ptr %32, align 8, !range !4, !noundef !5
  %34 = trunc i8 %33 to i1
  %35 = load ptr, ptr %6, align 8
  %36 = zext i1 %34 to i8
  store i8 %36, ptr %35, align 1
  %37 = load ptr, ptr %4, align 8
  %38 = load i32, ptr %8, align 4
  call void @_bt_relbuf(ptr noundef %37, i32 noundef %38)
  store i32 1, ptr %9, align 4
  br label %52

39:                                               ; preds = %14
  %40 = load ptr, ptr %4, align 8
  %41 = getelementptr inbounds nuw %struct.RelationData, ptr %40, i32 0, i32 50
  %42 = load ptr, ptr %41, align 8
  %43 = call ptr @MemoryContextAlloc(ptr noundef %42, i64 noundef 48)
  %44 = load ptr, ptr %4, align 8
  %45 = getelementptr inbounds nuw %struct.RelationData, ptr %44, i32 0, i32 64
  store ptr %43, ptr %45, align 8
  %46 = load ptr, ptr %4, align 8
  %47 = getelementptr inbounds nuw %struct.RelationData, ptr %46, i32 0, i32 64
  %48 = load ptr, ptr %47, align 8
  %49 = load ptr, ptr %7, align 8
  call void @llvm.memcpy.p0.p0.i64(ptr align 1 %48, ptr align 8 %49, i64 48, i1 false)
  %50 = load ptr, ptr %4, align 8
  %51 = load i32, ptr %8, align 4
  call void @_bt_relbuf(ptr noundef %50, i32 noundef %51)
  store i32 0, ptr %9, align 4
  br label %52

52:                                               ; preds = %39, %24
  call void @llvm.lifetime.end.p0(i64 4, ptr %8) #8
  %53 = load i32, ptr %9, align 4
  switch i32 %53, label %71 [
    i32 0, label %54
  ]

54:                                               ; preds = %52
  br label %55

55:                                               ; preds = %54, %3
  %56 = load ptr, ptr %4, align 8
  %57 = getelementptr inbounds nuw %struct.RelationData, ptr %56, i32 0, i32 64
  %58 = load ptr, ptr %57, align 8
  store ptr %58, ptr %7, align 8
  %59 = load ptr, ptr %7, align 8
  %60 = getelementptr inbounds nuw %struct.BTMetaPageData, ptr %59, i32 0, i32 1
  %61 = load i32, ptr %60, align 4
  %62 = icmp ugt i32 %61, 3
  %63 = load ptr, ptr %5, align 8
  %64 = zext i1 %62 to i8
  store i8 %64, ptr %63, align 1
  %65 = load ptr, ptr %7, align 8
  %66 = getelementptr inbounds nuw %struct.BTMetaPageData, ptr %65, i32 0, i32 8
  %67 = load i8, ptr %66, align 8, !range !4, !noundef !5
  %68 = trunc i8 %67 to i1
  %69 = load ptr, ptr %6, align 8
  %70 = zext i1 %68 to i8
  store i8 %70, ptr %69, align 1
  store i32 0, ptr %9, align 4
  br label %71

71:                                               ; preds = %55, %52
  call void @llvm.lifetime.end.p0(i64 8, ptr %7) #8
  %72 = load i32, ptr %9, align 4
  switch i32 %72, label %74 [
    i32 0, label %73
    i32 1, label %73
  ]

73:                                               ; preds = %71, %71
  ret void

74:                                               ; preds = %71
  unreachable
}