; Function Attrs: nounwind uwtable
define dso_local void @_bt_metaversion(ptr noundef %0, ptr noundef writeonly captures(none) initializes((0, 1)) %1, ptr noundef writeonly captures(none) initializes((0, 1)) %2) local_unnamed_addr #0 {
  %4 = getelementptr inbounds nuw i8, ptr %0, i64 456
  %5 = load ptr, ptr %4, align 8
  %6 = icmp eq ptr %5, null
  br i1 %6, label %7, label %22

7:                                                ; preds = %3
  %8 = tail call i32 @ReadBuffer(ptr noundef nonnull %0, i32 noundef 0) #10
  tail call void @LockBuffer(i32 noundef %8, i32 noundef 1) #10
  tail call void @_bt_checkpage(ptr noundef nonnull %0, i32 noundef %8)
  %9 = tail call fastcc ptr @_bt_getmeta(ptr noundef nonnull %0, i32 noundef %8)
  %10 = getelementptr inbounds nuw i8, ptr %9, i64 8
  %11 = load i32, ptr %10, align 8
  %.not = icmp eq i32 %11, 0
  br i1 %.not, label %.thread, label %18

.thread:                                          ; preds = %7
  %12 = getelementptr inbounds nuw i8, ptr %9, i64 4
  %13 = load i32, ptr %12, align 4
  %14 = icmp ugt i32 %13, 3
  %15 = zext i1 %14 to i8
  store i8 %15, ptr %1, align 1
  %16 = getelementptr inbounds nuw i8, ptr %9, i64 40
  %17 = load i8, ptr %16, align 8, !range !4, !noundef !5
  store i8 %17, ptr %2, align 1
  tail call void @LockBuffer(i32 noundef %8, i32 noundef 0) #10
  tail call void @ReleaseBuffer(i32 noundef %8) #10
  br label %30

18:                                               ; preds = %7
  %19 = getelementptr inbounds nuw i8, ptr %0, i64 344
  %20 = load ptr, ptr %19, align 8
  %21 = tail call ptr @MemoryContextAlloc(ptr noundef %20, i64 noundef 48) #10
  store ptr %21, ptr %4, align 8
  tail call void @llvm.memcpy.p0.p0.i64(ptr noundef nonnull align 1 dereferenceable(48) %21, ptr noundef nonnull align 8 dereferenceable(48) %9, i64 48, i1 false)
  tail call void @LockBuffer(i32 noundef %8, i32 noundef 0) #10
  tail call void @ReleaseBuffer(i32 noundef %8) #10
  %.pre = load ptr, ptr %4, align 8
  br label %22

22:                                               ; preds = %18, %3
  %23 = phi ptr [ %.pre, %18 ], [ %5, %3 ]
  %24 = getelementptr inbounds nuw i8, ptr %23, i64 4
  %25 = load i32, ptr %24, align 4
  %26 = icmp ugt i32 %25, 3
  %27 = zext i1 %26 to i8
  store i8 %27, ptr %1, align 1
  %28 = getelementptr inbounds nuw i8, ptr %23, i64 40
  %29 = load i8, ptr %28, align 8, !range !4, !noundef !5
  store i8 %29, ptr %2, align 1
  br label %30

30:                                               ; preds = %.thread, %22
  ret void
}